target datalayout = "e-m:e-p270:32:32-p271:32:32-p272:64:64-i64:64-i128:128-f80:128-n8:16:32:64-S128"
target triple = "x86_64-pc-linux-gnu"

@.str = private unnamed_addr constant [54 x i8] c"../openssl/providers/implementations/rands/seed_src.c\00", align 1
@__func__.seed_get_seed = private unnamed_addr constant [14 x i8] c"seed_get_seed\00", align 1

; Function Attrs: nounwind uwtable
define internal i64 @seed_get_seed(ptr noundef %0, ptr noundef %1, i32 noundef %2, i64 noundef %3, i64 noundef %4, i32 noundef %5, ptr noundef %6, i64 noundef %7) #0 {
  %9 = alloca i64, align 8
  %10 = alloca ptr, align 8
  %11 = alloca ptr, align 8
  %12 = alloca i32, align 4
  %13 = alloca i64, align 8
  %14 = alloca i64, align 8
  %15 = alloca i32, align 4
  %16 = alloca ptr, align 8
  %17 = alloca i64, align 8
  %18 = alloca i64, align 8
  %19 = alloca i64, align 8
  %20 = alloca ptr, align 8
  %21 = alloca i32, align 4
  store ptr %0, ptr %10, align 8, !tbaa !3
  store ptr %1, ptr %11, align 8, !tbaa !22
  store i32 %2, ptr %12, align 4, !tbaa !13
  store i64 %3, ptr %13, align 8, !tbaa !16
  store i64 %4, ptr %14, align 8, !tbaa !16
  store i32 %5, ptr %15, align 4, !tbaa !13
  store ptr %6, ptr %16, align 8, !tbaa !14
  store i64 %7, ptr %17, align 8, !tbaa !16
  call void @llvm.lifetime.start.p0(i64 8, ptr %18) #4
  store i64 0, ptr %18, align 8, !tbaa !16
  call void @llvm.lifetime.start.p0(i64 8, ptr %19) #4
  store i64 0, ptr %19, align 8, !tbaa !16
  call void @llvm.lifetime.start.p0(i64 8, ptr %20) #4
  %22 = load i32, ptr %12, align 4, !tbaa !13
  %23 = load i64, ptr %13, align 8, !tbaa !16
  %24 = load i64, ptr %14, align 8, !tbaa !16
  %25 = call ptr @ossl_rand_pool_new(i32 noundef %22, i32 noundef 1, i64 noundef %23, i64 noundef %24)
  store ptr %25, ptr %20, align 8, !tbaa !20
  %26 = load ptr, ptr %20, align 8, !tbaa !20
  %27 = icmp eq ptr %26, null
  br i1 %27, label %28, label %29

28:                                               ; preds = %8
  call void @ERR_new()
  call void @ERR_set_debug(ptr noundef @.str, i32 noundef 191, ptr noundef @__func__.seed_get_seed)
  call void (i32, i32, ptr, ...) @ERR_set_error(i32 noundef 57, i32 noundef 524324, ptr noundef null)
  store i64 0, ptr %9, align 8
  store i32 1, ptr %21, align 4
  br label %50

29:                                               ; preds = %8
  %30 = load ptr, ptr %20, align 8, !tbaa !20
  %31 = call i64 @ossl_pool_acquire_entropy(ptr noundef %30)
  store i64 %31, ptr %19, align 8, !tbaa !16
  %32 = load i64, ptr %19, align 8, !tbaa !16
  %33 = icmp ugt i64 %32, 0
  br i1 %33, label %34, label %46

34:                                               ; preds = %29
  %35 = load ptr, ptr %20, align 8, !tbaa !20
  %36 = load ptr, ptr %16, align 8, !tbaa !14
  %37 = load i64, ptr %17, align 8, !tbaa !16
  %38 = call i32 @ossl_rand_pool_adin_mix_in(ptr noundef %35, ptr noundef %36, i64 noundef %37)
  %39 = icmp ne i32 %38, 0
  br i1 %39, label %40, label %46

40:                                               ; preds = %34
  %41 = load ptr, ptr %20, align 8, !tbaa !20
  %42 = call i64 @ossl_rand_pool_length(ptr noundef %41)
  store i64 %42, ptr %18, align 8, !tbaa !16
  %43 = load ptr, ptr %20, align 8, !tbaa !20
  %44 = call ptr @ossl_rand_pool_detach(ptr noundef %43)
  %45 = load ptr, ptr %11, align 8, !tbaa !22
  store ptr %44, ptr %45, align 8, !tbaa !14
  br label %47

46:                                               ; preds = %34, %29
  call void @ERR_new()
  call void @ERR_set_debug(ptr noundef @.str, i32 noundef 203, ptr noundef @__func__.seed_get_seed)
  call void (i32, i32, ptr, ...) @ERR_set_error(i32 noundef 57, i32 noundef 186, ptr noundef null)
  br label %47

47:                                               ; preds = %46, %40
  %48 = load ptr, ptr %20, align 8, !tbaa !20
  call void @ossl_rand_pool_free(ptr noundef %48)
  %49 = load i64, ptr %18, align 8, !tbaa !16
  store i64 %49, ptr %9, align 8
  store i32 1, ptr %21, align 4
  br label %50

50:                                               ; preds = %47, %28
  call void @llvm.lifetime.end.p0(i64 8, ptr %20) #4
  call void @llvm.lifetime.end.p0(i64 8, ptr %19) #4
  call void @llvm.lifetime.end.p0(i64 8, ptr %18) #4
  %51 = load i64, ptr %9, align 8
  ret i64 %51
}