; Function Attrs: nounwind uwtable
define internal i64 @seed_get_seed(ptr readnone captures(none) %0, ptr noundef writeonly captures(none) %1, i32 noundef %2, i64 noundef %3, i64 noundef %4, i32 %5, ptr noundef %6, i64 noundef %7) #0 {
  %9 = tail call ptr @ossl_rand_pool_new(i32 noundef %2, i32 noundef 1, i64 noundef %3, i64 noundef %4) #5
  %10 = icmp eq ptr %9, null
  br i1 %10, label %11, label %12

11:                                               ; preds = %8
  tail call void @ERR_new() #5
  tail call void @ERR_set_debug(ptr noundef nonnull @.str, i32 noundef 191, ptr noundef nonnull @__func__.seed_get_seed) #5
  tail call void (i32, i32, ptr, ...) @ERR_set_error(i32 noundef 57, i32 noundef 524324, ptr noundef null) #5
  br label %21

12:                                               ; preds = %8
  %13 = tail call i64 @ossl_pool_acquire_entropy(ptr noundef nonnull %9) #5
  %.not = icmp eq i64 %13, 0
  br i1 %.not, label %19, label %14

14:                                               ; preds = %12
  %15 = tail call i32 @ossl_rand_pool_adin_mix_in(ptr noundef nonnull %9, ptr noundef %6, i64 noundef %7) #5
  %.not16 = icmp eq i32 %15, 0
  br i1 %.not16, label %19, label %16

16:                                               ; preds = %14
  %17 = tail call i64 @ossl_rand_pool_length(ptr noundef nonnull %9) #5
  %18 = tail call ptr @ossl_rand_pool_detach(ptr noundef nonnull %9) #5
  store ptr %18, ptr %1, align 8, !tbaa !10
  br label %20

19:                                               ; preds = %14, %12
  tail call void @ERR_new() #5
  tail call void @ERR_set_debug(ptr noundef nonnull @.str, i32 noundef 203, ptr noundef nonnull @__func__.seed_get_seed) #5
  tail call void (i32, i32, ptr, ...) @ERR_set_error(i32 noundef 57, i32 noundef 186, ptr noundef null) #5
  br label %20

20:                                               ; preds = %19, %16
  %.014 = phi i64 [ %17, %16 ], [ 0, %19 ]
  tail call void @ossl_rand_pool_free(ptr noundef nonnull %9) #5
  br label %21

21:                                               ; preds = %20, %11
  %.0 = phi i64 [ 0, %11 ], [ %.014, %20 ]
  ret i64 %.0
}